; Function Attrs: nounwind uwtable
define dso_local i64 @json_array_element_text(ptr noundef captures(none) %0) local_unnamed_addr #0 {
  %2 = alloca i32, align 4
  %3 = getelementptr inbounds nuw i8, ptr %0, i64 32
  %4 = load i64, ptr %3, align 8
  %5 = inttoptr i64 %4 to ptr
  %6 = tail call ptr @pg_detoast_datum_packed(ptr noundef %5) #15
  call void @llvm.lifetime.start.p0(i64 4, ptr nonnull %2) #15
  %7 = getelementptr inbounds nuw i8, ptr %0, i64 48
  %8 = load i64, ptr %7, align 8
  %9 = trunc i64 %8 to i32
  store i32 %9, ptr %2, align 4
  %10 = call fastcc ptr @get_worker(ptr noundef %6, ptr noundef null, ptr noundef nonnull %2, i32 noundef 1, i1 noundef zeroext true)
  %.not = icmp eq ptr %10, null
  br i1 %.not, label %13, label %11

11:                                               ; preds = %1
  %12 = ptrtoint ptr %10 to i64
  br label %15

13:                                               ; preds = %1
  %14 = getelementptr inbounds nuw i8, ptr %0, i64 28
  store i8 1, ptr %14, align 4
  br label %15

15:                                               ; preds = %13, %11
  %.0 = phi i64 [ %12, %11 ], [ 0, %13 ]
  call void @llvm.lifetime.end.p0(i64 4, ptr nonnull %2) #15
  ret i64 %.0
}